
test_inst:     file format elf64-x86-64


Disassembly of section .init:

00000000004004f8 <_init>:
  4004f8:	48 83 ec 08          	sub    $0x8,%rsp
  4004fc:	e8 bb 00 00 00       	callq  4005bc <call_gmon_start>
  400501:	e8 4a 01 00 00       	callq  400650 <frame_dummy>
  400506:	e8 45 04 00 00       	callq  400950 <__do_global_ctors_aux>
  40050b:	48 83 c4 08          	add    $0x8,%rsp
  40050f:	c3                   	retq   

Disassembly of section .plt:

0000000000400510 <printf@plt-0x10>:
  400510:	ff 35 da 0a 20 00    	pushq  0x200ada(%rip)        # 600ff0 <_GLOBAL_OFFSET_TABLE_+0x8>
  400516:	ff 25 dc 0a 20 00    	jmpq   *0x200adc(%rip)        # 600ff8 <_GLOBAL_OFFSET_TABLE_+0x10>
  40051c:	0f 1f 40 00          	nopl   0x0(%rax)

0000000000400520 <printf@plt>:
  400520:	ff 25 da 0a 20 00    	jmpq   *0x200ada(%rip)        # 601000 <_GLOBAL_OFFSET_TABLE_+0x18>
  400526:	68 00 00 00 00       	pushq  $0x0
  40052b:	e9 e0 ff ff ff       	jmpq   400510 <_init+0x18>

0000000000400530 <puts@plt>:
  400530:	ff 25 d2 0a 20 00    	jmpq   *0x200ad2(%rip)        # 601008 <_GLOBAL_OFFSET_TABLE_+0x20>
  400536:	68 01 00 00 00       	pushq  $0x1
  40053b:	e9 d0 ff ff ff       	jmpq   400510 <_init+0x18>

0000000000400540 <__libc_start_main@plt>:
  400540:	ff 25 ca 0a 20 00    	jmpq   *0x200aca(%rip)        # 601010 <_GLOBAL_OFFSET_TABLE_+0x28>
  400546:	68 02 00 00 00       	pushq  $0x2
  40054b:	e9 c0 ff ff ff       	jmpq   400510 <_init+0x18>

0000000000400550 <siglongjmp@plt>:
  400550:	ff 25 c2 0a 20 00    	jmpq   *0x200ac2(%rip)        # 601018 <_GLOBAL_OFFSET_TABLE_+0x30>
  400556:	68 03 00 00 00       	pushq  $0x3
  40055b:	e9 b0 ff ff ff       	jmpq   400510 <_init+0x18>

0000000000400560 <sigaction@plt>:
  400560:	ff 25 ba 0a 20 00    	jmpq   *0x200aba(%rip)        # 601020 <_GLOBAL_OFFSET_TABLE_+0x38>
  400566:	68 04 00 00 00       	pushq  $0x4
  40056b:	e9 a0 ff ff ff       	jmpq   400510 <_init+0x18>

0000000000400570 <sigemptyset@plt>:
  400570:	ff 25 b2 0a 20 00    	jmpq   *0x200ab2(%rip)        # 601028 <_GLOBAL_OFFSET_TABLE_+0x40>
  400576:	68 05 00 00 00       	pushq  $0x5
  40057b:	e9 90 ff ff ff       	jmpq   400510 <_init+0x18>

0000000000400580 <__sigsetjmp@plt>:
  400580:	ff 25 aa 0a 20 00    	jmpq   *0x200aaa(%rip)        # 601030 <_GLOBAL_OFFSET_TABLE_+0x48>
  400586:	68 06 00 00 00       	pushq  $0x6
  40058b:	e9 80 ff ff ff       	jmpq   400510 <_init+0x18>

Disassembly of section .text:

0000000000400590 <_start>:
  400590:	31 ed                	xor    %ebp,%ebp
  400592:	49 89 d1             	mov    %rdx,%r9
  400595:	5e                   	pop    %rsi
  400596:	48 89 e2             	mov    %rsp,%rdx
  400599:	48 83 e4 f0          	and    $0xfffffffffffffff0,%rsp
  40059d:	50                   	push   %rax
  40059e:	54                   	push   %rsp
  40059f:	49 c7 c0 b0 08 40 00 	mov    $0x4008b0,%r8
  4005a6:	48 c7 c1 c0 08 40 00 	mov    $0x4008c0,%rcx
  4005ad:	48 c7 c7 52 07 40 00 	mov    $0x400752,%rdi
  4005b4:	e8 87 ff ff ff       	callq  400540 <__libc_start_main@plt>
  4005b9:	f4                   	hlt    
  4005ba:	90                   	nop
  4005bb:	90                   	nop

00000000004005bc <call_gmon_start>:
  4005bc:	48 83 ec 08          	sub    $0x8,%rsp
  4005c0:	48 8b 05 19 0a 20 00 	mov    0x200a19(%rip),%rax        # 600fe0 <_DYNAMIC+0x190>
  4005c7:	48 85 c0             	test   %rax,%rax
  4005ca:	74 02                	je     4005ce <call_gmon_start+0x12>
  4005cc:	ff d0                	callq  *%rax
  4005ce:	48 83 c4 08          	add    $0x8,%rsp
  4005d2:	c3                   	retq   
  4005d3:	90                   	nop
  4005d4:	90                   	nop
  4005d5:	90                   	nop
  4005d6:	90                   	nop
  4005d7:	90                   	nop
  4005d8:	90                   	nop
  4005d9:	90                   	nop
  4005da:	90                   	nop
  4005db:	90                   	nop
  4005dc:	90                   	nop
  4005dd:	90                   	nop
  4005de:	90                   	nop
  4005df:	90                   	nop

00000000004005e0 <__do_global_dtors_aux>:
  4005e0:	55                   	push   %rbp
  4005e1:	48 89 e5             	mov    %rsp,%rbp
  4005e4:	53                   	push   %rbx
  4005e5:	48 83 ec 08          	sub    $0x8,%rsp
  4005e9:	80 3d 70 0a 20 00 00 	cmpb   $0x0,0x200a70(%rip)        # 601060 <completed.7424>
  4005f0:	75 4b                	jne    40063d <__do_global_dtors_aux+0x5d>
  4005f2:	bb 40 0e 60 00       	mov    $0x600e40,%ebx
  4005f7:	48 8b 05 6a 0a 20 00 	mov    0x200a6a(%rip),%rax        # 601068 <dtor_idx.7426>
  4005fe:	48 81 eb 38 0e 60 00 	sub    $0x600e38,%rbx
  400605:	48 c1 fb 03          	sar    $0x3,%rbx
  400609:	48 83 eb 01          	sub    $0x1,%rbx
  40060d:	48 39 d8             	cmp    %rbx,%rax
  400610:	73 24                	jae    400636 <__do_global_dtors_aux+0x56>
  400612:	eb 04                	jmp    400618 <__do_global_dtors_aux+0x38>
  400614:	90                   	nop
  400615:	90                   	nop
  400616:	90                   	nop
  400617:	90                   	nop
  400618:	48 83 c0 01          	add    $0x1,%rax
  40061c:	48 89 05 45 0a 20 00 	mov    %rax,0x200a45(%rip)        # 601068 <dtor_idx.7426>
  400623:	ff 14 c5 38 0e 60 00 	callq  *0x600e38(,%rax,8)
  40062a:	48 8b 05 37 0a 20 00 	mov    0x200a37(%rip),%rax        # 601068 <dtor_idx.7426>
  400631:	48 39 d8             	cmp    %rbx,%rax
  400634:	72 e2                	jb     400618 <__do_global_dtors_aux+0x38>
  400636:	c6 05 23 0a 20 00 01 	movb   $0x1,0x200a23(%rip)        # 601060 <completed.7424>
  40063d:	48 83 c4 08          	add    $0x8,%rsp
  400641:	5b                   	pop    %rbx
  400642:	c9                   	leaveq 
  400643:	c3                   	retq   
  400644:	eb 0a                	jmp    400650 <frame_dummy>
  400646:	90                   	nop
  400647:	90                   	nop
  400648:	90                   	nop
  400649:	90                   	nop
  40064a:	90                   	nop
  40064b:	90                   	nop
  40064c:	90                   	nop
  40064d:	90                   	nop
  40064e:	90                   	nop
  40064f:	90                   	nop

0000000000400650 <frame_dummy>:
  400650:	55                   	push   %rbp
  400651:	48 83 3d ef 07 20 00 	cmpq   $0x0,0x2007ef(%rip)        # 600e48 <__JCR_END__>
  400658:	00 
  400659:	48 89 e5             	mov    %rsp,%rbp
  40065c:	74 12                	je     400670 <frame_dummy+0x20>
  40065e:	b8 00 00 00 00       	mov    $0x0,%eax
  400663:	48 85 c0             	test   %rax,%rax
  400666:	74 08                	je     400670 <frame_dummy+0x20>
  400668:	bf 48 0e 60 00       	mov    $0x600e48,%edi
  40066d:	c9                   	leaveq 
  40066e:	ff e0                	jmpq   *%rax
  400670:	c9                   	leaveq 
  400671:	c3                   	retq   
  400672:	90                   	nop
  400673:	90                   	nop

0000000000400674 <my_handler>:
  400674:	55                   	push   %rbp
  400675:	48 89 e5             	mov    %rsp,%rbp
  400678:	48 83 ec 20          	sub    $0x20,%rsp
  40067c:	89 7d fc             	mov    %edi,-0x4(%rbp)
  40067f:	48 89 75 f0          	mov    %rsi,-0x10(%rbp)
  400683:	48 89 55 e8          	mov    %rdx,-0x18(%rbp)
  400687:	bf 00 0a 40 00       	mov    $0x400a00,%edi
  40068c:	e8 9f fe ff ff       	callq  400530 <puts@plt>
  400691:	48 8b 45 f0          	mov    -0x10(%rbp),%rax
  400695:	8b 10                	mov    (%rax),%edx
  400697:	b8 1b 0a 40 00       	mov    $0x400a1b,%eax
  40069c:	89 d6                	mov    %edx,%esi
  40069e:	48 89 c7             	mov    %rax,%rdi
  4006a1:	b8 00 00 00 00       	mov    $0x0,%eax
  4006a6:	e8 75 fe ff ff       	callq  400520 <printf@plt>
  4006ab:	48 8b 45 f0          	mov    -0x10(%rbp),%rax
  4006af:	8b 50 04             	mov    0x4(%rax),%edx
  4006b2:	b8 2e 0a 40 00       	mov    $0x400a2e,%eax
  4006b7:	89 d6                	mov    %edx,%esi
  4006b9:	48 89 c7             	mov    %rax,%rdi
  4006bc:	b8 00 00 00 00       	mov    $0x0,%eax
  4006c1:	e8 5a fe ff ff       	callq  400520 <printf@plt>
  4006c6:	48 8b 45 f0          	mov    -0x10(%rbp),%rax
  4006ca:	8b 50 08             	mov    0x8(%rax),%edx
  4006cd:	b8 40 0a 40 00       	mov    $0x400a40,%eax
  4006d2:	89 d6                	mov    %edx,%esi
  4006d4:	48 89 c7             	mov    %rax,%rdi
  4006d7:	b8 00 00 00 00       	mov    $0x0,%eax
  4006dc:	e8 3f fe ff ff       	callq  400520 <printf@plt>
  4006e1:	48 8b 45 f0          	mov    -0x10(%rbp),%rax
  4006e5:	48 8b 50 18          	mov    0x18(%rax),%rdx
  4006e9:	48 8b 45 f0          	mov    -0x10(%rbp),%rax
  4006ed:	8b 48 18             	mov    0x18(%rax),%ecx
  4006f0:	b8 50 0a 40 00       	mov    $0x400a50,%eax
  4006f5:	89 ce                	mov    %ecx,%esi
  4006f7:	48 89 c7             	mov    %rax,%rdi
  4006fa:	b8 00 00 00 00       	mov    $0x0,%eax
  4006ff:	e8 1c fe ff ff       	callq  400520 <printf@plt>
  400704:	48 8b 45 f0          	mov    -0x10(%rbp),%rax
  400708:	48 8b 50 10          	mov    0x10(%rax),%rdx
  40070c:	b8 65 0a 40 00       	mov    $0x400a65,%eax
  400711:	48 89 d6             	mov    %rdx,%rsi
  400714:	48 89 c7             	mov    %rax,%rdi
  400717:	b8 00 00 00 00       	mov    $0x0,%eax
  40071c:	e8 ff fd ff ff       	callq  400520 <printf@plt>
  400721:	8b 05 21 09 20 00    	mov    0x200921(%rip),%eax        # 601048 <cd_inst>
  400727:	89 c2                	mov    %eax,%edx
  400729:	83 c0 01             	add    $0x1,%eax
  40072c:	89 05 16 09 20 00    	mov    %eax,0x200916(%rip)        # 601048 <cd_inst>
  400732:	89 d6                	mov    %edx,%esi
  400734:	bf 80 10 60 00       	mov    $0x601080,%edi
  400739:	e8 12 fe ff ff       	callq  400550 <siglongjmp@plt>

000000000040073e <execute>:
  40073e:	55                   	push   %rbp
  40073f:	48 89 e5             	mov    %rsp,%rbp
  400742:	48 83 ec 10          	sub    $0x10,%rsp
  400746:	48 89 7d f8          	mov    %rdi,-0x8(%rbp)
  40074a:	48 8b 45 f8          	mov    -0x8(%rbp),%rax
  40074e:	ff d0                	callq  *%rax
  400750:	c9                   	leaveq 
  400751:	c3                   	retq   

0000000000400752 <main>:
  400752:	55                   	push   %rbp
  400753:	48 89 e5             	mov    %rsp,%rbp
  400756:	53                   	push   %rbx
  400757:	48 81 ec c8 00 00 00 	sub    $0xc8,%rsp
  40075e:	89 bd 3c ff ff ff    	mov    %edi,-0xc4(%rbp)
  400764:	48 89 b5 30 ff ff ff 	mov    %rsi,-0xd0(%rbp)
  40076b:	c7 45 e8 00 00 00 00 	movl   $0x0,-0x18(%rbp)
  400772:	c7 45 e4 02 00 00 00 	movl   $0x2,-0x1c(%rbp)
  400779:	48 c7 85 40 ff ff ff 	movq   $0x400674,-0xc0(%rbp)
  400780:	74 06 40 00 
  400784:	48 8d 85 40 ff ff ff 	lea    -0xc0(%rbp),%rax
  40078b:	48 83 c0 08          	add    $0x8,%rax
  40078f:	48 89 c7             	mov    %rax,%rdi
  400792:	e8 d9 fd ff ff       	callq  400570 <sigemptyset@plt>
  400797:	c7 45 c8 04 00 00 00 	movl   $0x4,-0x38(%rbp)
  40079e:	48 8d 85 40 ff ff ff 	lea    -0xc0(%rbp),%rax
  4007a5:	ba 00 00 00 00       	mov    $0x0,%edx
  4007aa:	48 89 c6             	mov    %rax,%rsi
  4007ad:	bf 04 00 00 00       	mov    $0x4,%edi
  4007b2:	e8 a9 fd ff ff       	callq  400560 <sigaction@plt>
  4007b7:	be 01 00 00 00       	mov    $0x1,%esi
  4007bc:	bf 80 10 60 00       	mov    $0x601080,%edi
  4007c1:	e8 ba fd ff ff       	callq  400580 <__sigsetjmp@plt>
  4007c6:	89 45 ec             	mov    %eax,-0x14(%rbp)
  4007c9:	83 7d ec 00          	cmpl   $0x0,-0x14(%rbp)
  4007cd:	74 1a                	je     4007e9 <main+0x97>
  4007cf:	bf 7b 0a 40 00       	mov    $0x400a7b,%edi
  4007d4:	e8 57 fd ff ff       	callq  400530 <puts@plt>
  4007d9:	83 45 e8 01          	addl   $0x1,-0x18(%rbp)
  4007dd:	8b 45 e8             	mov    -0x18(%rbp),%eax
  4007e0:	3b 45 e4             	cmp    -0x1c(%rbp),%eax
  4007e3:	0f 8d a0 00 00 00    	jge    400889 <main+0x137>
  4007e9:	b8 95 0a 40 00       	mov    $0x400a95,%eax
  4007ee:	8b 55 e8             	mov    -0x18(%rbp),%edx
  4007f1:	89 d6                	mov    %edx,%esi
  4007f3:	48 89 c7             	mov    %rax,%rdi
  4007f6:	b8 00 00 00 00       	mov    $0x0,%eax
  4007fb:	e8 20 fd ff ff       	callq  400520 <printf@plt>
  400800:	8b 45 e8             	mov    -0x18(%rbp),%eax
  400803:	48 98                	cltq   
  400805:	48 c1 e0 04          	shl    $0x4,%rax
  400809:	0f b6 80 e3 09 40 00 	movzbl 0x4009e3(%rax),%eax
  400810:	0f b6 f0             	movzbl %al,%esi
  400813:	8b 45 e8             	mov    -0x18(%rbp),%eax
  400816:	48 98                	cltq   
  400818:	48 c1 e0 03          	shl    $0x3,%rax
  40081c:	48 83 c0 01          	add    $0x1,%rax
  400820:	0f b6 84 00 e0 09 40 	movzbl 0x4009e0(%rax,%rax,1),%eax
  400827:	00 
  400828:	0f b6 c8             	movzbl %al,%ecx
  40082b:	8b 45 e8             	mov    -0x18(%rbp),%eax
  40082e:	48 98                	cltq   
  400830:	48 c1 e0 04          	shl    $0x4,%rax
  400834:	0f b6 80 e1 09 40 00 	movzbl 0x4009e1(%rax),%eax
  40083b:	0f b6 d0             	movzbl %al,%edx
  40083e:	8b 45 e8             	mov    -0x18(%rbp),%eax
  400841:	48 98                	cltq   
  400843:	48 c1 e0 04          	shl    $0x4,%rax
  400847:	0f b6 80 e0 09 40 00 	movzbl 0x4009e0(%rax),%eax
  40084e:	0f b6 d8             	movzbl %al,%ebx
  400851:	b8 b1 0a 40 00       	mov    $0x400ab1,%eax
  400856:	41 89 f0             	mov    %esi,%r8d
  400859:	89 de                	mov    %ebx,%esi
  40085b:	48 89 c7             	mov    %rax,%rdi
  40085e:	b8 00 00 00 00       	mov    $0x0,%eax
  400863:	e8 b8 fc ff ff       	callq  400520 <printf@plt>
  400868:	8b 45 e8             	mov    -0x18(%rbp),%eax
  40086b:	48 98                	cltq   
  40086d:	48 c1 e0 04          	shl    $0x4,%rax
  400871:	48 05 e0 09 40 00    	add    $0x4009e0,%rax
  400877:	48 89 45 d8          	mov    %rax,-0x28(%rbp)
  40087b:	48 8b 45 d8          	mov    -0x28(%rbp),%rax
  40087f:	48 89 c7             	mov    %rax,%rdi
  400882:	e8 b7 fe ff ff       	callq  40073e <execute>
  400887:	eb 01                	jmp    40088a <main+0x138>
  400889:	90                   	nop
  40088a:	bf be 0a 40 00       	mov    $0x400abe,%edi
  40088f:	e8 9c fc ff ff       	callq  400530 <puts@plt>
  400894:	b8 00 00 00 00       	mov    $0x0,%eax
  400899:	48 81 c4 c8 00 00 00 	add    $0xc8,%rsp
  4008a0:	5b                   	pop    %rbx
  4008a1:	c9                   	leaveq 
  4008a2:	c3                   	retq   
  4008a3:	90                   	nop
  4008a4:	90                   	nop
  4008a5:	90                   	nop
  4008a6:	90                   	nop
  4008a7:	90                   	nop
  4008a8:	90                   	nop
  4008a9:	90                   	nop
  4008aa:	90                   	nop
  4008ab:	90                   	nop
  4008ac:	90                   	nop
  4008ad:	90                   	nop
  4008ae:	90                   	nop
  4008af:	90                   	nop

00000000004008b0 <__libc_csu_fini>:
  4008b0:	f3 c3                	repz retq 
  4008b2:	eb 0c                	jmp    4008c0 <__libc_csu_init>
  4008b4:	90                   	nop
  4008b5:	90                   	nop
  4008b6:	90                   	nop
  4008b7:	90                   	nop
  4008b8:	90                   	nop
  4008b9:	90                   	nop
  4008ba:	90                   	nop
  4008bb:	90                   	nop
  4008bc:	90                   	nop
  4008bd:	90                   	nop
  4008be:	90                   	nop
  4008bf:	90                   	nop

00000000004008c0 <__libc_csu_init>:
  4008c0:	48 89 6c 24 d8       	mov    %rbp,-0x28(%rsp)
  4008c5:	4c 89 64 24 e0       	mov    %r12,-0x20(%rsp)
  4008ca:	48 8d 2d 53 05 20 00 	lea    0x200553(%rip),%rbp        # 600e24 <__init_array_end>
  4008d1:	4c 8d 25 4c 05 20 00 	lea    0x20054c(%rip),%r12        # 600e24 <__init_array_end>
  4008d8:	4c 89 6c 24 e8       	mov    %r13,-0x18(%rsp)
  4008dd:	4c 89 74 24 f0       	mov    %r14,-0x10(%rsp)
  4008e2:	4c 89 7c 24 f8       	mov    %r15,-0x8(%rsp)
  4008e7:	48 89 5c 24 d0       	mov    %rbx,-0x30(%rsp)
  4008ec:	48 83 ec 38          	sub    $0x38,%rsp
  4008f0:	4c 29 e5             	sub    %r12,%rbp
  4008f3:	41 89 fd             	mov    %edi,%r13d
  4008f6:	49 89 f6             	mov    %rsi,%r14
  4008f9:	48 c1 fd 03          	sar    $0x3,%rbp
  4008fd:	49 89 d7             	mov    %rdx,%r15
  400900:	e8 f3 fb ff ff       	callq  4004f8 <_init>
  400905:	48 85 ed             	test   %rbp,%rbp
  400908:	74 1c                	je     400926 <__libc_csu_init+0x66>
  40090a:	31 db                	xor    %ebx,%ebx
  40090c:	eb 02                	jmp    400910 <__libc_csu_init+0x50>
  40090e:	90                   	nop
  40090f:	90                   	nop
  400910:	4c 89 fa             	mov    %r15,%rdx
  400913:	4c 89 f6             	mov    %r14,%rsi
  400916:	44 89 ef             	mov    %r13d,%edi
  400919:	41 ff 14 dc          	callq  *(%r12,%rbx,8)
  40091d:	48 83 c3 01          	add    $0x1,%rbx
  400921:	48 39 eb             	cmp    %rbp,%rbx
  400924:	72 ea                	jb     400910 <__libc_csu_init+0x50>
  400926:	48 8b 5c 24 08       	mov    0x8(%rsp),%rbx
  40092b:	48 8b 6c 24 10       	mov    0x10(%rsp),%rbp
  400930:	4c 8b 64 24 18       	mov    0x18(%rsp),%r12
  400935:	4c 8b 6c 24 20       	mov    0x20(%rsp),%r13
  40093a:	4c 8b 74 24 28       	mov    0x28(%rsp),%r14
  40093f:	4c 8b 7c 24 30       	mov    0x30(%rsp),%r15
  400944:	48 83 c4 38          	add    $0x38,%rsp
  400948:	c3                   	retq   
  400949:	90                   	nop
  40094a:	90                   	nop
  40094b:	90                   	nop
  40094c:	90                   	nop
  40094d:	90                   	nop
  40094e:	90                   	nop
  40094f:	90                   	nop

0000000000400950 <__do_global_ctors_aux>:
  400950:	55                   	push   %rbp
  400951:	48 89 e5             	mov    %rsp,%rbp
  400954:	53                   	push   %rbx
  400955:	48 83 ec 08          	sub    $0x8,%rsp
  400959:	48 8b 05 c8 04 20 00 	mov    0x2004c8(%rip),%rax        # 600e28 <__CTOR_LIST__>
  400960:	48 83 f8 ff          	cmp    $0xffffffffffffffff,%rax
  400964:	74 19                	je     40097f <__do_global_ctors_aux+0x2f>
  400966:	bb 28 0e 60 00       	mov    $0x600e28,%ebx
  40096b:	eb 03                	jmp    400970 <__do_global_ctors_aux+0x20>
  40096d:	90                   	nop
  40096e:	90                   	nop
  40096f:	90                   	nop
  400970:	48 83 eb 08          	sub    $0x8,%rbx
  400974:	ff d0                	callq  *%rax
  400976:	48 8b 03             	mov    (%rbx),%rax
  400979:	48 83 f8 ff          	cmp    $0xffffffffffffffff,%rax
  40097d:	75 f1                	jne    400970 <__do_global_ctors_aux+0x20>
  40097f:	48 83 c4 08          	add    $0x8,%rsp
  400983:	5b                   	pop    %rbx
  400984:	c9                   	leaveq 
  400985:	c3                   	retq   
  400986:	90                   	nop
  400987:	90                   	nop

Disassembly of section .fini:

0000000000400988 <_fini>:
  400988:	48 83 ec 08          	sub    $0x8,%rsp
  40098c:	e8 4f fc ff ff       	callq  4005e0 <__do_global_dtors_aux>
  400991:	48 83 c4 08          	add    $0x8,%rsp
  400995:	c3                   	retq   
